Certificate:
    Data:
        Version: 3 (0x2)
        Serial Number: 2 (0x2)
    Signature Algorithm: sha256WithRSAEncryption
        Issuer: C=XX, L=Default City, O=Testing CA, CN=Testing CA
        Validity
            Not Before: Feb 15 07:57:59 2016 GMT
            Not After : Feb 14 07:57:59 2017 GMT
        Subject: C=XX, L=Default City, O=Second certificate, CN=Second certificate
        Subject Public Key Info:
            Public Key Algorithm: rsaEncryption
                Public-Key: (2048 bit)
                Modulus:
                    00:cd:d3:15:36:c4:31:b7:0f:97:d4:dc:ca:23:50:
                    9f:b8:e0:5c:cf:ff:16:fe:6e:8f:38:38:e9:ac:55:
                    7a:c5:7f:e2:7c:57:9e:03:c1:a7:de:d5:c9:11:3c:
                    9c:95:88:a5:c4:a3:28:c2:55:8f:40:eb:14:f8:fd:
                    9e:50:a1:f7:ac:1b:4d:8b:6d:82:c4:47:c5:09:b0:
                    3d:b8:ff:f6:69:a4:8d:28:70:d6:c3:87:2b:31:35:
                    04:09:a8:91:2a:40:91:0e:cf:11:1f:41:18:18:68:
                    2e:98:4e:fb:9d:84:3f:45:60:eb:03:a2:53:75:08:
                    df:15:89:c1:cc:0b:73:f2:4b:ea:7b:20:7e:71:ba:
                    e9:18:de:b5:ed:31:b9:05:f9:01:d5:66:90:1e:d8:
                    d6:95:25:1d:be:74:f4:3f:b1:c4:f9:55:3a:38:69:
                    03:14:12:5e:67:7a:a4:6e:97:7c:45:db:41:ad:f3:
                    ff:9c:62:ab:a4:16:a0:9a:16:2a:64:41:e8:32:70:
                    5e:6b:40:dd:fa:4c:2e:f7:53:db:8b:66:80:7a:05:
                    b7:f2:db:87:9b:c8:c4:d5:b0:f1:6c:b6:b9:4c:4c:
                    59:e9:94:77:48:b8:d0:8b:17:75:c5:04:55:f3:36:
                    e6:93:40:eb:13:50:b9:67:83:b0:33:7a:c2:53:9c:
                    cc:7b
                Exponent: 65537 (0x10001)
        X509v3 extensions:
            X509v3 Basic Constraints: 
                CA:FALSE
            Netscape Comment: 
                OpenSSL Generated Certificate
            X509v3 Subject Key Identifier: 
                F6:2F:E6:86:CF:8F:31:ED:C5:97:EF:72:63:88:24:C7:E6:23:74:B8
            X509v3 Authority Key Identifier: 
                keyid:E1:AE:C0:AA:C7:FB:BF:8E:45:52:F0:8C:A3:84:1D:85:76:74:7B:BE

    Signature Algorithm: sha256WithRSAEncryption
         7e:52:9b:52:24:25:e2:c0:37:13:57:8c:61:9a:bb:72:e1:01:
         bc:ab:1e:ff:d5:43:10:32:e6:29:55:9b:98:94:f4:e9:4c:6a:
         2a:85:33:8f:c0:da:4c:21:1a:d3:cf:74:04:f8:90:b2:69:08:
         de:40:aa:19:0b:27:77:5a:f8:2a:3a:fb:80:e6:bc:af:60:d5:
         d7:5f:64:24:65:ab:53:5e:03:f7:5b:08:3b:78:d7:26:de:0e:
         9e:d2:3a:26:3e:8f:5e:f5:17:83:ff:be:db:e1:fa:1e:5d:e3:
         cf:2a:cc:f4:d1:c4:f6:24:2a:90:12:4c:33:5a:4d:77:f9:00:
         05:72:ce:2f:f4:25:a8:97:88:92:1d:99:72:25:35:ca:30:72:
         06:d5:2b:c0:ea:b6:98:c4:46:16:a2:fb:27:0b:1c:4f:e1:c5:
         3f:a3:b8:ce:f8:5c:a8:a2:49:5f:95:63:65:bd:e5:9c:f1:b9:
         9a:85:2c:a0:bd:28:84:d0:a4:59:4b:50:e9:cf:0c:15:85:de:
         4e:96:ec:6c:2a:21:47:39:25:58:57:d8:d8:5e:07:a5:d6:6e:
         3e:15:a6:94:69:cf:d6:a1:da:27:9a:5c:0c:00:5f:11:5c:1a:
         26:9d:c0:fc:40:e1:bf:c1:fc:ed:c1:c9:8a:5a:a9:fc:4a:c3:
         d9:67:81:bf
-----BEGIN CERTIFICATE-----
MIIDojCCAoqgAwIBAgIBAjANBgkqhkiG9w0BAQsFADBOMQswCQYDVQQGEwJYWDEV
MBMGA1UEBwwMRGVmYXVsdCBDaXR5MRMwEQYDVQQKDApUZXN0aW5nIENBMRMwEQYD
VQQDDApUZXN0aW5nIENBMB4XDTE2MDIxNTA3NTc1OVoXDTE3MDIxNDA3NTc1OVow
XjELMAkGA1UEBhMCWFgxFTATBgNVBAcMDERlZmF1bHQgQ2l0eTEbMBkGA1UECgwS
U2Vjb25kIGNlcnRpZmljYXRlMRswGQYDVQQDDBJTZWNvbmQgY2VydGlmaWNhdGUw
ggEiMA0GCSqGSIb3DQEBAQUAA4IBDwAwggEKAoIBAQDN0xU2xDG3D5fU3MojUJ+4
4FzP/xb+bo84OOmsVXrFf+J8V54Dwafe1ckRPJyViKXEoyjCVY9A6xT4/Z5Qofes
G02LbYLER8UJsD24//ZppI0ocNbDhysxNQQJqJEqQJEOzxEfQRgYaC6YTvudhD9F
YOsDolN1CN8VicHMC3PyS+p7IH5xuukY3rXtMbkF+QHVZpAe2NaVJR2+dPQ/scT5
VTo4aQMUEl5neqRul3xF20Gt8/+cYqukFqCaFipkQegycF5rQN36TC73U9uLZoB6
Bbfy24ebyMTVsPFstrlMTFnplHdIuNCLF3XFBFXzNuaTQOsTULlng7AzesJTnMx7
AgMBAAGjezB5MAkGA1UdEwQCMAAwLAYJYIZIAYb4QgENBB8WHU9wZW5TU0wgR2Vu
ZXJhdGVkIENlcnRpZmljYXRlMB0GA1UdDgQWBBT2L+aGz48x7cWX73JjiCTH5iN0
uDAfBgNVHSMEGDAWgBThrsCqx/u/jkVS8IyjhB2FdnR7vjANBgkqhkiG9w0BAQsF
AAOCAQEAflKbUiQl4sA3E1eMYZq7cuEBvKse/9VDEDLmKVWbmJT06UxqKoUzj8Da
TCEa0890BPiQsmkI3kCqGQsnd1r4Kjr7gOa8r2DV119kJGWrU14D91sIO3jXJt4O
ntI6Jj6PXvUXg/++2+H6Hl3jzyrM9NHE9iQqkBJMM1pNd/kABXLOL/QlqJeIkh2Z
ciU1yjByBtUrwOq2mMRGFqL7JwscT+HFP6O4zvhcqKJJX5VjZb3lnPG5moUsoL0o
hNCkWUtQ6c8MFYXeTpbsbCohRzklWFfY2F4HpdZuPhWmlGnP1qHaJ5pcDABfEVwa
Jp3A/EDhv8H87cHJilqp/ErD2WeBvw==
-----END CERTIFICATE-----
